target datalayout = "e-m:e-p270:32:32-p271:32:32-p272:64:64-i64:64-i128:128-f80:128-n8:16:32:64-S128"
target triple = "x86_64-pc-linux-gnu"

%struct.codelength = type { i32, i32, i32, i32 }

; Function Attrs: nounwind uwtable
define internal i32 @comp_codes_value(ptr noundef %0, ptr noundef %1, ptr noundef %2) #0 {
  %4 = alloca ptr, align 8
  %5 = alloca ptr, align 8
  %6 = alloca ptr, align 8
  %7 = alloca ptr, align 8
  %8 = alloca ptr, align 8
  %9 = alloca i32, align 4
  store ptr %0, ptr %4, align 8, !tbaa !36
  store ptr %1, ptr %5, align 8, !tbaa !36
  store ptr %2, ptr %6, align 8, !tbaa !36
  call void @llvm.lifetime.start.p0(i64 8, ptr %7) #5
  %10 = load ptr, ptr %4, align 8, !tbaa !36
  store ptr %10, ptr %7, align 8, !tbaa !14
  call void @llvm.lifetime.start.p0(i64 8, ptr %8) #5
  %11 = load ptr, ptr %5, align 8, !tbaa !36
  store ptr %11, ptr %8, align 8, !tbaa !14
  call void @llvm.lifetime.start.p0(i64 4, ptr %9) #5
  store i32 0, ptr %9, align 4, !tbaa !8
  %12 = load ptr, ptr %7, align 8, !tbaa !14
  %13 = getelementptr inbounds nuw %struct.codelength, ptr %12, i32 0, i32 2
  %14 = load i32, ptr %13, align 4, !tbaa !25
  %15 = load ptr, ptr %8, align 8, !tbaa !14
  %16 = getelementptr inbounds nuw %struct.codelength, ptr %15, i32 0, i32 2
  %17 = load i32, ptr %16, align 4, !tbaa !25
  %18 = icmp ugt i32 %14, %17
  br i1 %18, label %19, label %20

19:                                               ; preds = %3
  store i32 1, ptr %9, align 4, !tbaa !8
  br label %21

20:                                               ; preds = %3
  store i32 -1, ptr %9, align 4, !tbaa !8
  br label %21

21:                                               ; preds = %20, %19
  %22 = load i32, ptr %9, align 4, !tbaa !8
  call void @llvm.lifetime.end.p0(i64 4, ptr %9) #5
  call void @llvm.lifetime.end.p0(i64 8, ptr %8) #5
  call void @llvm.lifetime.end.p0(i64 8, ptr %7) #5
  ret i32 %22
}